; Function Attrs: mustprogress uwtable
define internal fastcc void @_ZN3nixL24makeConstantStorePathRefENS_9StorePathE(ptr dead_on_unwind noalias writable align 8 %0, ptr noundef nonnull %1) unnamed_addr #5 personality ptr @__gxx_personality_v0 {
  %3 = alloca %"struct.nix::DerivedPathOpaque", align 8
  call void @_ZNSt7__cxx1112basic_stringIcSt11char_traitsIcESaIcEEC2ERKS4_(ptr noundef nonnull align 8 dereferenceable(32) %3, ptr noundef nonnull align 8 dereferenceable(32) %1)
  invoke void @_ZN3nix8make_refINS_17SingleDerivedPathEJNS_17DerivedPathOpaqueEEEENS_3refIT_EEDpOT0_(ptr dead_on_unwind writable sret(%"class.nix::ref.240") align 8 %0, ptr noundef nonnull align 8 dereferenceable(32) %3)
          to label %4 unwind label %11

4:                                                ; preds = %2
  %5 = load ptr, ptr %3, align 8
  %6 = getelementptr inbounds i8, ptr %3, i64 16
  %7 = icmp eq ptr %5, %6
  br i1 %7, label %_ZNKSt7__cxx1112basic_stringIcSt11char_traitsIcESaIcEE11_M_is_localEv.exit.thread.i.i.i.i, label %_ZNKSt7__cxx1112basic_stringIcSt11char_traitsIcESaIcEE11_M_is_localEv.exit.i.i.i.i

_ZNKSt7__cxx1112basic_stringIcSt11char_traitsIcESaIcEE11_M_is_localEv.exit.thread.i.i.i.i: ; preds = %4
  %8 = getelementptr inbounds i8, ptr %3, i64 8
  %9 = load i64, ptr %8, align 8
  %10 = icmp ult i64 %9, 16
  call void @llvm.assume(i1 %10)
  br label %_ZN3nix17DerivedPathOpaqueD2Ev.exit

_ZNKSt7__cxx1112basic_stringIcSt11char_traitsIcESaIcEE11_M_is_localEv.exit.i.i.i.i: ; preds = %4
  call void @_ZdlPv(ptr noundef %5) #32
  br label %_ZN3nix17DerivedPathOpaqueD2Ev.exit

_ZN3nix17DerivedPathOpaqueD2Ev.exit:              ; preds = %_ZNKSt7__cxx1112basic_stringIcSt11char_traitsIcESaIcEE11_M_is_localEv.exit.thread.i.i.i.i, %_ZNKSt7__cxx1112basic_stringIcSt11char_traitsIcESaIcEE11_M_is_localEv.exit.i.i.i.i
  call void @_ZNSaIcED2Ev(ptr noundef nonnull align 1 dereferenceable(1) %3) #29
  ret void

11:                                               ; preds = %2
  %12 = landingpad { ptr, i32 }
          cleanup
  call void @_ZN3nix17DerivedPathOpaqueD2Ev(ptr noundef nonnull align 8 dereferenceable(32) %3) #29
  resume { ptr, i32 } %12
}